; Function Attrs: nofree norecurse nosync nounwind memory(argmem: readwrite) uwtable
define internal void @SDL_ConvertQuadToMono(ptr noundef writeonly captures(none) %0, ptr noundef readonly captures(none) %1, i32 noundef %2) #5 {
  %.not11 = icmp eq i32 %2, 0
  br i1 %.not11, label %._crit_edge, label %.lr.ph

.lr.ph:                                           ; preds = %3, %.lr.ph
  %.014 = phi i32 [ %15, %.lr.ph ], [ %2, %3 ]
  %.0913 = phi ptr [ %17, %.lr.ph ], [ %0, %3 ]
  %.01012 = phi ptr [ %16, %.lr.ph ], [ %1, %3 ]
  %4 = load float, ptr %.01012, align 4
  %5 = getelementptr inbounds nuw i8, ptr %.01012, i64 4
  %6 = load float, ptr %5, align 4
  %7 = fmul float %6, 2.500000e-01
  %8 = tail call float @llvm.fmuladd.f32(float %4, float 2.500000e-01, float %7)
  %9 = getelementptr inbounds nuw i8, ptr %.01012, i64 8
  %10 = load float, ptr %9, align 4
  %11 = tail call float @llvm.fmuladd.f32(float %10, float 2.500000e-01, float %8)
  %12 = getelementptr inbounds nuw i8, ptr %.01012, i64 12
  %13 = load float, ptr %12, align 4
  %14 = tail call float @llvm.fmuladd.f32(float %13, float 2.500000e-01, float %11)
  store float %14, ptr %.0913, align 4
  %15 = add nsw i32 %.014, -1
  %16 = getelementptr inbounds nuw i8, ptr %.01012, i64 16
  %17 = getelementptr inbounds nuw i8, ptr %.0913, i64 4
  %.not = icmp eq i32 %15, 0
  br i1 %.not, label %._crit_edge, label %.lr.ph, !llvm.loop !71

._crit_edge:                                      ; preds = %.lr.ph, %3
  ret void
}